target datalayout = "e-m:e-p270:32:32-p271:32:32-p272:64:64-i64:64-i128:128-f80:128-n8:16:32:64-S128"
target triple = "x86_64-pc-linux-gnu"

@VP8AccumulateSSE = external global ptr, align 8

; Function Attrs: nounwind uwtable
define internal double @AccumulateSSE(ptr noundef %0, i32 noundef %1, ptr noundef %2, i32 noundef %3, i32 noundef %4, i32 noundef %5) #0 {
  %7 = alloca ptr, align 8
  %8 = alloca i32, align 4
  %9 = alloca ptr, align 8
  %10 = alloca i32, align 4
  %11 = alloca i32, align 4
  %12 = alloca i32, align 4
  %13 = alloca i32, align 4
  %14 = alloca double, align 8
  store ptr %0, ptr %7, align 8
  store i32 %1, ptr %8, align 4
  store ptr %2, ptr %9, align 8
  store i32 %3, ptr %10, align 4
  store i32 %4, ptr %11, align 4
  store i32 %5, ptr %12, align 4
  store double 0.000000e+00, ptr %14, align 8
  store i32 0, ptr %13, align 4
  br label %15

15:                                               ; preds = %36, %6
  %16 = load i32, ptr %13, align 4
  %17 = load i32, ptr %12, align 4
  %18 = icmp slt i32 %16, %17
  br i1 %18, label %19, label %39

19:                                               ; preds = %15
  %20 = load ptr, ptr @VP8AccumulateSSE, align 8
  %21 = load ptr, ptr %7, align 8
  %22 = load ptr, ptr %9, align 8
  %23 = load i32, ptr %11, align 4
  %24 = call i32 %20(ptr noundef %21, ptr noundef %22, i32 noundef %23)
  %25 = uitofp i32 %24 to double
  %26 = load double, ptr %14, align 8
  %27 = fadd double %26, %25
  store double %27, ptr %14, align 8
  %28 = load i32, ptr %8, align 4
  %29 = load ptr, ptr %7, align 8
  %30 = sext i32 %28 to i64
  %31 = getelementptr inbounds i8, ptr %29, i64 %30
  store ptr %31, ptr %7, align 8
  %32 = load i32, ptr %10, align 4
  %33 = load ptr, ptr %9, align 8
  %34 = sext i32 %32 to i64
  %35 = getelementptr inbounds i8, ptr %33, i64 %34
  store ptr %35, ptr %9, align 8
  br label %36

36:                                               ; preds = %19
  %37 = load i32, ptr %13, align 4
  %38 = add nsw i32 %37, 1
  store i32 %38, ptr %13, align 4
  br label %15, !llvm.loop !7

39:                                               ; preds = %15
  %40 = load double, ptr %14, align 8
  ret double %40
}