; Function Attrs: nounwind uwtable
define internal double @AccumulateSSE(ptr noundef %0, i32 noundef %1, ptr noundef %2, i32 noundef %3, i32 noundef %4, i32 noundef %5) unnamed_addr #0 {
  %7 = icmp sgt i32 %5, 0
  br i1 %7, label %.lr.ph, label %._crit_edge

.lr.ph:                                           ; preds = %6
  %8 = sext i32 %1 to i64
  %9 = sext i32 %3 to i64
  br label %10

10:                                               ; preds = %.lr.ph, %10
  %.017 = phi double [ 0.000000e+00, %.lr.ph ], [ %14, %10 ]
  %.01116 = phi i32 [ 0, %.lr.ph ], [ %17, %10 ]
  %.01215 = phi ptr [ %0, %.lr.ph ], [ %15, %10 ]
  %.01314 = phi ptr [ %2, %.lr.ph ], [ %16, %10 ]
  %11 = load ptr, ptr @VP8AccumulateSSE, align 8
  %12 = tail call i32 %11(ptr noundef %.01215, ptr noundef %.01314, i32 noundef %4) #5
  %13 = uitofp i32 %12 to double
  %14 = fadd double %.017, %13
  %15 = getelementptr inbounds i8, ptr %.01215, i64 %8
  %16 = getelementptr inbounds i8, ptr %.01314, i64 %9
  %17 = add nuw nsw i32 %.01116, 1
  %exitcond.not = icmp eq i32 %17, %5
  br i1 %exitcond.not, label %._crit_edge, label %10, !llvm.loop !8

._crit_edge:                                      ; preds = %10, %6
  %.0.lcssa = phi double [ 0.000000e+00, %6 ], [ %14, %10 ]
  ret double %.0.lcssa
}